target datalayout = "e-m:e-p270:32:32-p271:32:32-p272:64:64-i64:64-i128:128-f80:128-n8:16:32:64-S128"
target triple = "x86_64-pc-linux-gnu"

%struct.nameData = type { [64 x i8] }
%struct.ObjectAddress = type { i32, i32, i32 }
%struct.ScanKeyData = type { i32, i16, i16, i32, i32, %struct.FmgrInfo, i64 }
%struct.FmgrInfo = type { ptr, i32, i16, i8, i8, i8, ptr, ptr, ptr }
%struct.FormData_pg_constraint = type { i32, %struct.nameData, i32, i8, i8, i8, i8, i8, i32, i32, i32, i32, i32, i8, i8, i8, i8, i16, i8, i8 }
%struct.HeapTupleData = type { i32, %struct.ItemPointerData, i32, ptr }
%struct.ItemPointerData = type { %struct.BlockIdData, i16 }
%struct.BlockIdData = type { i16, i16 }
%struct.HeapTupleHeaderData = type { %union.anon, %struct.ItemPointerData, i16, i16, i8, [0 x i8] }
%union.anon = type { %struct.HeapTupleFields }
%struct.HeapTupleFields = type { i32, i32, %union.anon.0 }
%union.anon.0 = type { i32 }

@object_access_hook = external global ptr, align 8

; Function Attrs: inlinehint nounwind uwtable
define internal ptr @GETSTRUCT(ptr noundef %0) #3 {
  %2 = alloca ptr, align 8
  store ptr %0, ptr %2, align 8
  %3 = load ptr, ptr %2, align 8
  %4 = getelementptr inbounds nuw %struct.HeapTupleData, ptr %3, i32 0, i32 3
  %5 = load ptr, ptr %4, align 8
  %6 = load ptr, ptr %2, align 8
  %7 = getelementptr inbounds nuw %struct.HeapTupleData, ptr %6, i32 0, i32 3
  %8 = load ptr, ptr %7, align 8
  %9 = getelementptr inbounds nuw %struct.HeapTupleHeaderData, ptr %8, i32 0, i32 4
  %10 = load i8, ptr %9, align 2
  %11 = zext i8 %10 to i32
  %12 = sext i32 %11 to i64
  %13 = getelementptr inbounds i8, ptr %5, i64 %12
  ret ptr %13
}

; Function Attrs: inlinehint nounwind uwtable
define internal i64 @ObjectIdGetDatum(i32 noundef %0) #3 {
  %2 = alloca i32, align 4
  store i32 %0, ptr %2, align 4
  %3 = load i32, ptr %2, align 4
  %4 = zext i32 %3 to i64
  ret i64 %4
}

; Function Attrs: nounwind uwtable
define dso_local void @AlterConstraintNamespaces(i32 noundef %0, i32 noundef %1, i32 noundef %2, i1 noundef zeroext %3, ptr noundef %4) #0 {
  %6 = alloca i32, align 4
  %7 = alloca i32, align 4
  %8 = alloca i32, align 4
  %9 = alloca i8, align 1
  %10 = alloca ptr, align 8
  %11 = alloca ptr, align 8
  %12 = alloca [2 x %struct.ScanKeyData], align 16
  %13 = alloca ptr, align 8
  %14 = alloca ptr, align 8
  %15 = alloca ptr, align 8
  %16 = alloca %struct.ObjectAddress, align 4
  %17 = alloca i32, align 4
  store i32 %0, ptr %6, align 4
  store i32 %1, ptr %7, align 4
  store i32 %2, ptr %8, align 4
  %18 = zext i1 %3 to i8
  store i8 %18, ptr %9, align 1
  store ptr %4, ptr %10, align 8
  call void @llvm.lifetime.start.p0(i64 8, ptr %11) #9
  call void @llvm.lifetime.start.p0(i64 144, ptr %12) #9
  call void @llvm.lifetime.start.p0(i64 8, ptr %13) #9
  call void @llvm.lifetime.start.p0(i64 8, ptr %14) #9
  %19 = call ptr @table_open(i32 noundef 2606, i32 noundef 3)
  store ptr %19, ptr %11, align 8
  %20 = getelementptr inbounds [2 x %struct.ScanKeyData], ptr %12, i64 0, i64 0
  %21 = load i8, ptr %9, align 1, !range !13, !noundef !14
  %22 = trunc i8 %21 to i1
  br i1 %22, label %23, label %24

23:                                               ; preds = %5
  br label %26

24:                                               ; preds = %5
  %25 = load i32, ptr %6, align 4
  br label %26

26:                                               ; preds = %24, %23
  %27 = phi i32 [ 0, %23 ], [ %25, %24 ]
  %28 = call i64 @ObjectIdGetDatum(i32 noundef %27)
  call void @ScanKeyInit(ptr noundef %20, i16 noundef signext 9, i16 noundef zeroext 3, i32 noundef 184, i64 noundef %28)
  %29 = getelementptr inbounds [2 x %struct.ScanKeyData], ptr %12, i64 0, i64 1
  %30 = load i8, ptr %9, align 1, !range !13, !noundef !14
  %31 = trunc i8 %30 to i1
  br i1 %31, label %32, label %34

32:                                               ; preds = %26
  %33 = load i32, ptr %6, align 4
  br label %35

34:                                               ; preds = %26
  br label %35

35:                                               ; preds = %34, %32
  %36 = phi i32 [ %33, %32 ], [ 0, %34 ]
  %37 = call i64 @ObjectIdGetDatum(i32 noundef %36)
  call void @ScanKeyInit(ptr noundef %29, i16 noundef signext 10, i16 noundef zeroext 3, i32 noundef 184, i64 noundef %37)
  %38 = load ptr, ptr %11, align 8
  %39 = getelementptr inbounds [2 x %struct.ScanKeyData], ptr %12, i64 0, i64 0
  %40 = call ptr @systable_beginscan(ptr noundef %38, i32 noundef 2665, i1 noundef zeroext true, ptr noundef null, i32 noundef 2, ptr noundef %39)
  store ptr %40, ptr %13, align 8
  br label %41

41:                                               ; preds = %95, %93, %35
  %42 = load ptr, ptr %13, align 8
  %43 = call ptr @systable_getnext(ptr noundef %42)
  store ptr %43, ptr %14, align 8
  %44 = icmp ne ptr %43, null
  br i1 %44, label %45, label %96

45:                                               ; preds = %41
  call void @llvm.lifetime.start.p0(i64 8, ptr %15) #9
  %46 = load ptr, ptr %14, align 8
  %47 = call ptr @GETSTRUCT(ptr noundef %46)
  store ptr %47, ptr %15, align 8
  call void @llvm.lifetime.start.p0(i64 12, ptr %16) #9
  br label %48

48:                                               ; preds = %45
  %49 = getelementptr inbounds nuw %struct.ObjectAddress, ptr %16, i32 0, i32 0
  store i32 2606, ptr %49, align 4
  %50 = load ptr, ptr %15, align 8
  %51 = getelementptr inbounds nuw %struct.FormData_pg_constraint, ptr %50, i32 0, i32 0
  %52 = load i32, ptr %51, align 4
  %53 = getelementptr inbounds nuw %struct.ObjectAddress, ptr %16, i32 0, i32 1
  store i32 %52, ptr %53, align 4
  %54 = getelementptr inbounds nuw %struct.ObjectAddress, ptr %16, i32 0, i32 2
  store i32 0, ptr %54, align 4
  br label %55

55:                                               ; preds = %48
  br label %56

56:                                               ; preds = %55
  %57 = load ptr, ptr %10, align 8
  %58 = call zeroext i1 @object_address_present(ptr noundef %16, ptr noundef %57)
  br i1 %58, label %59, label %60

59:                                               ; preds = %56
  store i32 2, ptr %17, align 4
  br label %93, !llvm.loop !22

60:                                               ; preds = %56
  %61 = load ptr, ptr %15, align 8
  %62 = getelementptr inbounds nuw %struct.FormData_pg_constraint, ptr %61, i32 0, i32 2
  %63 = load i32, ptr %62, align 4
  %64 = load i32, ptr %7, align 4
  %65 = icmp eq i32 %63, %64
  br i1 %65, label %66, label %82

66:                                               ; preds = %60
  %67 = load i32, ptr %7, align 4
  %68 = load i32, ptr %8, align 4
  %69 = icmp ne i32 %67, %68
  br i1 %69, label %70, label %82

70:                                               ; preds = %66
  %71 = load ptr, ptr %14, align 8
  %72 = call ptr @heap_copytuple(ptr noundef %71)
  store ptr %72, ptr %14, align 8
  %73 = load ptr, ptr %14, align 8
  %74 = call ptr @GETSTRUCT(ptr noundef %73)
  store ptr %74, ptr %15, align 8
  %75 = load i32, ptr %8, align 4
  %76 = load ptr, ptr %15, align 8
  %77 = getelementptr inbounds nuw %struct.FormData_pg_constraint, ptr %76, i32 0, i32 2
  store i32 %75, ptr %77, align 4
  %78 = load ptr, ptr %11, align 8
  %79 = load ptr, ptr %14, align 8
  %80 = getelementptr inbounds nuw %struct.HeapTupleData, ptr %79, i32 0, i32 1
  %81 = load ptr, ptr %14, align 8
  call void @CatalogTupleUpdate(ptr noundef %78, ptr noundef %80, ptr noundef %81)
  br label %82

82:                                               ; preds = %70, %66, %60
  br label %83

83:                                               ; preds = %82
  %84 = load ptr, ptr @object_access_hook, align 8
  %85 = icmp ne ptr %84, null
  br i1 %85, label %86, label %89

86:                                               ; preds = %83
  %87 = getelementptr inbounds nuw %struct.ObjectAddress, ptr %16, i32 0, i32 1
  %88 = load i32, ptr %87, align 4
  call void @RunObjectPostAlterHook(i32 noundef 2606, i32 noundef %88, i32 noundef 0, i32 noundef 0, i1 noundef zeroext false)
  br label %89

89:                                               ; preds = %86, %83
  br label %90

90:                                               ; preds = %89
  br label %91

91:                                               ; preds = %90
  %92 = load ptr, ptr %10, align 8
  call void @add_exact_object_address(ptr noundef %16, ptr noundef %92)
  store i32 0, ptr %17, align 4
  br label %93

93:                                               ; preds = %91, %59
  call void @llvm.lifetime.end.p0(i64 12, ptr %16) #9
  call void @llvm.lifetime.end.p0(i64 8, ptr %15) #9
  %94 = load i32, ptr %17, align 4
  switch i32 %94, label %99 [
    i32 0, label %95
    i32 2, label %41
  ]

95:                                               ; preds = %93
  br label %41, !llvm.loop !22

96:                                               ; preds = %41
  %97 = load ptr, ptr %13, align 8
  call void @systable_endscan(ptr noundef %97)
  %98 = load ptr, ptr %11, align 8
  call void @table_close(ptr noundef %98, i32 noundef 3)
  call void @llvm.lifetime.end.p0(i64 8, ptr %14) #9
  call void @llvm.lifetime.end.p0(i64 8, ptr %13) #9
  call void @llvm.lifetime.end.p0(i64 144, ptr %12) #9
  call void @llvm.lifetime.end.p0(i64 8, ptr %11) #9
  ret void

99:                                               ; preds = %93
  unreachable
}