; Function Attrs: nounwind uwtable
define dso_local void @AlterConstraintNamespaces(i32 noundef %0, i32 noundef %1, i32 noundef %2, i1 noundef zeroext %3, ptr noundef %4) local_unnamed_addr #0 {
  %6 = alloca [2 x %struct.ScanKeyData], align 16
  %7 = alloca %struct.ObjectAddress, align 4
  call void @llvm.lifetime.start.p0(i64 144, ptr nonnull %6) #12
  %8 = tail call ptr @table_open(i32 noundef 2606, i32 noundef 3) #12
  %9 = zext i32 %0 to i64
  %10 = select i1 %3, i64 0, i64 %9
  call void @ScanKeyInit(ptr noundef nonnull %6, i16 noundef signext 9, i16 noundef zeroext 3, i32 noundef 184, i64 noundef %10) #12
  %11 = getelementptr inbounds nuw i8, ptr %6, i64 72
  %12 = select i1 %3, i64 %9, i64 0
  call void @ScanKeyInit(ptr noundef nonnull %11, i16 noundef signext 10, i16 noundef zeroext 3, i32 noundef 184, i64 noundef %12) #12
  %13 = call ptr @systable_beginscan(ptr noundef %8, i32 noundef 2665, i1 noundef zeroext true, ptr noundef null, i32 noundef 2, ptr noundef nonnull %6) #12
  %14 = call ptr @systable_getnext(ptr noundef %13) #12
  %.not27 = icmp eq ptr %14, null
  br i1 %.not27, label %._crit_edge, label %.lr.ph

.lr.ph:                                           ; preds = %5
  %15 = getelementptr inbounds nuw i8, ptr %7, i64 4
  %16 = getelementptr inbounds nuw i8, ptr %7, i64 8
  %.not24 = icmp eq i32 %1, %2
  br i1 %.not24, label %.lr.ph.split.us, label %.lr.ph.split

.lr.ph.split.us:                                  ; preds = %.lr.ph, %30
  %17 = phi ptr [ %31, %30 ], [ %14, %.lr.ph ]
  %18 = getelementptr i8, ptr %17, i64 16
  %.val26.us = load ptr, ptr %18, align 8
  %19 = getelementptr inbounds nuw i8, ptr %.val26.us, i64 22
  %20 = load i8, ptr %19, align 2
  %21 = zext i8 %20 to i64
  %22 = getelementptr inbounds nuw i8, ptr %.val26.us, i64 %21
  call void @llvm.lifetime.start.p0(i64 12, ptr nonnull %7) #12
  store i32 2606, ptr %7, align 4
  %23 = load i32, ptr %22, align 4
  store i32 %23, ptr %15, align 4
  store i32 0, ptr %16, align 4
  %24 = call zeroext i1 @object_address_present(ptr noundef nonnull %7, ptr noundef %4) #12
  br i1 %24, label %30, label %25, !llvm.loop !20

25:                                               ; preds = %.lr.ph.split.us
  %26 = load ptr, ptr @object_access_hook, align 8
  %.not25.us = icmp eq ptr %26, null
  br i1 %.not25.us, label %29, label %27

27:                                               ; preds = %25
  %28 = load i32, ptr %15, align 4
  call void @RunObjectPostAlterHook(i32 noundef 2606, i32 noundef %28, i32 noundef 0, i32 noundef 0, i1 noundef zeroext false) #12
  br label %29

29:                                               ; preds = %27, %25
  call void @add_exact_object_address(ptr noundef nonnull %7, ptr noundef %4) #12
  br label %30

30:                                               ; preds = %29, %.lr.ph.split.us
  call void @llvm.lifetime.end.p0(i64 12, ptr nonnull %7) #12
  %31 = call ptr @systable_getnext(ptr noundef %13) #12
  %.not.us = icmp eq ptr %31, null
  br i1 %.not.us, label %._crit_edge, label %.lr.ph.split.us

.lr.ph.split:                                     ; preds = %.lr.ph, %57
  %32 = phi ptr [ %58, %57 ], [ %14, %.lr.ph ]
  %33 = getelementptr i8, ptr %32, i64 16
  %.val26 = load ptr, ptr %33, align 8
  %34 = getelementptr inbounds nuw i8, ptr %.val26, i64 22
  %35 = load i8, ptr %34, align 2
  %36 = zext i8 %35 to i64
  %37 = getelementptr inbounds nuw i8, ptr %.val26, i64 %36
  call void @llvm.lifetime.start.p0(i64 12, ptr nonnull %7) #12
  store i32 2606, ptr %7, align 4
  %38 = load i32, ptr %37, align 4
  store i32 %38, ptr %15, align 4
  store i32 0, ptr %16, align 4
  %39 = call zeroext i1 @object_address_present(ptr noundef nonnull %7, ptr noundef %4) #12
  br i1 %39, label %57, label %40, !llvm.loop !20

40:                                               ; preds = %.lr.ph.split
  %41 = getelementptr inbounds nuw i8, ptr %37, i64 68
  %42 = load i32, ptr %41, align 4
  %.not28 = icmp eq i32 %42, %1
  br i1 %.not28, label %43, label %52

43:                                               ; preds = %40
  %44 = call ptr @heap_copytuple(ptr noundef nonnull %32) #12
  %45 = getelementptr i8, ptr %44, i64 16
  %.val = load ptr, ptr %45, align 8
  %46 = getelementptr inbounds nuw i8, ptr %.val, i64 22
  %47 = load i8, ptr %46, align 2
  %48 = zext i8 %47 to i64
  %49 = getelementptr inbounds nuw i8, ptr %.val, i64 %48
  %50 = getelementptr inbounds nuw i8, ptr %49, i64 68
  store i32 %2, ptr %50, align 4
  %51 = getelementptr inbounds nuw i8, ptr %44, i64 4
  call void @CatalogTupleUpdate(ptr noundef %8, ptr noundef nonnull %51, ptr noundef %44) #12
  br label %52

52:                                               ; preds = %40, %43
  %53 = load ptr, ptr @object_access_hook, align 8
  %.not25 = icmp eq ptr %53, null
  br i1 %.not25, label %56, label %54

54:                                               ; preds = %52
  %55 = load i32, ptr %15, align 4
  call void @RunObjectPostAlterHook(i32 noundef 2606, i32 noundef %55, i32 noundef 0, i32 noundef 0, i1 noundef zeroext false) #12
  br label %56

56:                                               ; preds = %54, %52
  call void @add_exact_object_address(ptr noundef nonnull %7, ptr noundef %4) #12
  br label %57

57:                                               ; preds = %.lr.ph.split, %56
  call void @llvm.lifetime.end.p0(i64 12, ptr nonnull %7) #12
  %58 = call ptr @systable_getnext(ptr noundef %13) #12
  %.not = icmp eq ptr %58, null
  br i1 %.not, label %._crit_edge, label %.lr.ph.split

._crit_edge:                                      ; preds = %57, %30, %5
  call void @systable_endscan(ptr noundef %13) #12
  call void @table_close(ptr noundef %8, i32 noundef 3) #12
  call void @llvm.lifetime.end.p0(i64 144, ptr nonnull %6) #12
  ret void
}